; ModuleID = 'source-C-CXX/44/1848.c'
source_filename = "source-C-CXX/44/1848.c"
target datalayout = "e-m:e-p270:32:32-p271:32:32-p272:64:64-i64:64-f80:128-n8:16:32:64-S128"
target triple = "x86_64-pc-linux-gnu"

@.str = private unnamed_addr constant [3 x i8] c"%s\00", align 1
@.str.1 = private unnamed_addr constant [3 x i8] c"%d\00", align 1

; Function Attrs: nofree nounwind sspstrong uwtable
define dso_local i32 @main() local_unnamed_addr #0 {
  %1 = alloca [50 x i8], align 16
  %2 = alloca [50 x i8], align 16
  %3 = getelementptr inbounds [50 x i8], [50 x i8]* %1, i64 0, i64 0
  call void @llvm.lifetime.start.p0i8(i64 50, i8* nonnull %3) #4
  call void @llvm.memset.p0i8.i64(i8* noundef nonnull align 16 dereferenceable(50) %3, i8 0, i64 50, i1 false)
  %4 = getelementptr inbounds [50 x i8], [50 x i8]* %2, i64 0, i64 0
  call void @llvm.lifetime.start.p0i8(i64 50, i8* nonnull %4) #4
  call void @llvm.memset.p0i8.i64(i8* noundef nonnull align 16 dereferenceable(50) %4, i8 0, i64 50, i1 false)
  %5 = call i32 (i8*, ...) @__isoc99_scanf(i8* getelementptr inbounds ([3 x i8], [3 x i8]* @.str, i64 0, i64 0), i8* nonnull %3)
  %6 = call i32 (i8*, ...) @__isoc99_scanf(i8* getelementptr inbounds ([3 x i8], [3 x i8]* @.str, i64 0, i64 0), i8* nonnull %4)
  %7 = load i8, i8* %3, align 16
  %8 = load i8, i8* %4, align 16, !tbaa !5
  %9 = icmp eq i8 %8, 0
  %10 = icmp eq i8 %7, 0
  %11 = select i1 %9, i1 true, i1 %10
  br i1 %11, label %43, label %12

12:                                               ; preds = %0, %37
  %13 = phi i64 [ %39, %37 ], [ 0, %0 ]
  %14 = phi i32 [ %38, %37 ], [ 0, %0 ]
  br label %19

15:                                               ; preds = %32
  %16 = getelementptr inbounds [50 x i8], [50 x i8]* %1, i64 0, i64 %24
  %17 = load i8, i8* %16, align 1, !tbaa !5
  %18 = icmp eq i8 %17, 0
  br i1 %18, label %37, label %19, !llvm.loop !8

19:                                               ; preds = %12, %15
  %20 = phi i64 [ 0, %12 ], [ %24, %15 ]
  %21 = phi i8 [ %7, %12 ], [ %17, %15 ]
  %22 = phi i32 [ %14, %12 ], [ 1, %15 ]
  %23 = icmp eq i32 %22, 0
  %24 = add nuw i64 %20, 1
  br i1 %23, label %32, label %25

25:                                               ; preds = %19
  %26 = getelementptr inbounds [50 x i8], [50 x i8]* %1, i64 0, i64 %24
  %27 = load i8, i8* %26, align 1, !tbaa !5
  %28 = icmp eq i8 %27, 0
  br i1 %28, label %29, label %32

29:                                               ; preds = %25
  %30 = trunc i64 %13 to i32
  %31 = call i32 (i8*, ...) @printf(i8* nonnull dereferenceable(1) getelementptr inbounds ([3 x i8], [3 x i8]* @.str.1, i64 0, i64 0), i32 %30)
  br label %43

32:                                               ; preds = %19, %25
  %33 = add nuw nsw i64 %20, %13
  %34 = getelementptr inbounds [50 x i8], [50 x i8]* %2, i64 0, i64 %33
  %35 = load i8, i8* %34, align 1, !tbaa !5
  %36 = icmp eq i8 %21, %35
  br i1 %36, label %15, label %37

37:                                               ; preds = %15, %32
  %38 = phi i32 [ 0, %32 ], [ 1, %15 ]
  %39 = add nuw i64 %13, 1
  %40 = getelementptr inbounds [50 x i8], [50 x i8]* %2, i64 0, i64 %39
  %41 = load i8, i8* %40, align 1, !tbaa !5
  %42 = icmp eq i8 %41, 0
  br i1 %42, label %43, label %12, !llvm.loop !10

43:                                               ; preds = %37, %0, %29
  %44 = phi i32 [ 1, %29 ], [ 0, %0 ], [ 0, %37 ]
  call void @llvm.lifetime.end.p0i8(i64 50, i8* nonnull %4) #4
  call void @llvm.lifetime.end.p0i8(i64 50, i8* nonnull %3) #4
  ret i32 %44
}

; Function Attrs: argmemonly mustprogress nofree nosync nounwind willreturn
declare void @llvm.lifetime.start.p0i8(i64 immarg, i8* nocapture) #1

; Function Attrs: argmemonly mustprogress nofree nounwind willreturn writeonly
declare void @llvm.memset.p0i8.i64(i8* nocapture writeonly, i8, i64, i1 immarg) #2

; Function Attrs: nofree nounwind
declare noundef i32 @__isoc99_scanf(i8* nocapture noundef readonly, ...) local_unnamed_addr #3

; Function Attrs: nofree nounwind
declare noundef i32 @printf(i8* nocapture noundef readonly, ...) local_unnamed_addr #3

; Function Attrs: argmemonly mustprogress nofree nosync nounwind willreturn
declare void @llvm.lifetime.end.p0i8(i64 immarg, i8* nocapture) #1


!llvm.module.flags = !{!0, !1, !2, !3}
!llvm.ident = !{!4}

!0 = !{i32 1, !"wchar_size", i32 4}
!1 = !{i32 7, !"PIC Level", i32 2}
!2 = !{i32 7, !"PIE Level", i32 2}
!3 = !{i32 7, !"uwtable", i32 1}
!4 = !{!"clang version 13.0.0"}
!5 = !{!6, !6, i64 0}
!6 = !{!"omnipotent char", !7, i64 0}
!7 = !{!"Simple C/C++ TBAA"}
!8 = distinct !{!8, !9}
!9 = !{!"llvm.loop.mustprogress"}
!10 = distinct !{!10, !9}
